target datalayout = "e-m:e-p270:32:32-p271:32:32-p272:64:64-i64:64-i128:128-f80:128-n8:16:32:64-S128"
target triple = "x86_64-pc-linux-gnu"

%struct.Proto = type { i8, i8, i8, i8, i8, i8, i8, i8, ptr, ptr, ptr, ptr, ptr, i64, ptr, ptr, ptr, ptr, ptr, ptr, ptr, ptr, ptr, ptr, i32, i32, i32, i32, i32, i32, i32, i32, i32, i32 }
%struct.LocVar = type { ptr, i32, i32, i8 }

; Function Attrs: mustprogress nounwind uwtable
define hidden noundef ptr @_Z14luaF_findlocalPK5Protoii(ptr noundef %0, i32 noundef %1, i32 noundef %2) #4 {
  %4 = alloca ptr, align 8
  %5 = alloca ptr, align 8
  %6 = alloca i32, align 4
  %7 = alloca i32, align 4
  %8 = alloca i32, align 4
  %9 = alloca i32, align 4
  store ptr %0, ptr %5, align 8, !tbaa !21
  store i32 %1, ptr %6, align 4, !tbaa !77
  store i32 %2, ptr %7, align 4, !tbaa !77
  call void @llvm.lifetime.start.p0(i64 4, ptr %8) #5
  store i32 0, ptr %8, align 4, !tbaa !77
  br label %10

10:                                               ; preds = %59, %3
  %11 = load i32, ptr %8, align 4, !tbaa !77
  %12 = load ptr, ptr %5, align 8, !tbaa !21
  %13 = getelementptr inbounds nuw %struct.Proto, ptr %12, i32 0, i32 26
  %14 = load i32, ptr %13, align 8, !tbaa !69
  %15 = icmp slt i32 %11, %14
  br i1 %15, label %17, label %16

16:                                               ; preds = %10
  store i32 2, ptr %9, align 4
  br label %62

17:                                               ; preds = %10
  %18 = load i32, ptr %6, align 4, !tbaa !77
  %19 = load ptr, ptr %5, align 8, !tbaa !21
  %20 = getelementptr inbounds nuw %struct.Proto, ptr %19, i32 0, i32 16
  %21 = load ptr, ptr %20, align 8, !tbaa !59
  %22 = load i32, ptr %8, align 4, !tbaa !77
  %23 = sext i32 %22 to i64
  %24 = getelementptr inbounds %struct.LocVar, ptr %21, i64 %23
  %25 = getelementptr inbounds nuw %struct.LocVar, ptr %24, i32 0, i32 3
  %26 = load i8, ptr %25, align 8, !tbaa !117
  %27 = zext i8 %26 to i32
  %28 = icmp eq i32 %18, %27
  br i1 %28, label %29, label %58

29:                                               ; preds = %17
  %30 = load i32, ptr %7, align 4, !tbaa !77
  %31 = load ptr, ptr %5, align 8, !tbaa !21
  %32 = getelementptr inbounds nuw %struct.Proto, ptr %31, i32 0, i32 16
  %33 = load ptr, ptr %32, align 8, !tbaa !59
  %34 = load i32, ptr %8, align 4, !tbaa !77
  %35 = sext i32 %34 to i64
  %36 = getelementptr inbounds %struct.LocVar, ptr %33, i64 %35
  %37 = getelementptr inbounds nuw %struct.LocVar, ptr %36, i32 0, i32 1
  %38 = load i32, ptr %37, align 8, !tbaa !113
  %39 = icmp sge i32 %30, %38
  br i1 %39, label %40, label %58

40:                                               ; preds = %29
  %41 = load i32, ptr %7, align 4, !tbaa !77
  %42 = load ptr, ptr %5, align 8, !tbaa !21
  %43 = getelementptr inbounds nuw %struct.Proto, ptr %42, i32 0, i32 16
  %44 = load ptr, ptr %43, align 8, !tbaa !59
  %45 = load i32, ptr %8, align 4, !tbaa !77
  %46 = sext i32 %45 to i64
  %47 = getelementptr inbounds %struct.LocVar, ptr %44, i64 %46
  %48 = getelementptr inbounds nuw %struct.LocVar, ptr %47, i32 0, i32 2
  %49 = load i32, ptr %48, align 4, !tbaa !115
  %50 = icmp slt i32 %41, %49
  br i1 %50, label %51, label %58

51:                                               ; preds = %40
  %52 = load ptr, ptr %5, align 8, !tbaa !21
  %53 = getelementptr inbounds nuw %struct.Proto, ptr %52, i32 0, i32 16
  %54 = load ptr, ptr %53, align 8, !tbaa !59
  %55 = load i32, ptr %8, align 4, !tbaa !77
  %56 = sext i32 %55 to i64
  %57 = getelementptr inbounds %struct.LocVar, ptr %54, i64 %56
  store ptr %57, ptr %4, align 8
  store i32 1, ptr %9, align 4
  br label %62

58:                                               ; preds = %40, %29, %17
  br label %59

59:                                               ; preds = %58
  %60 = load i32, ptr %8, align 4, !tbaa !77
  %61 = add nsw i32 %60, 1
  store i32 %61, ptr %8, align 4, !tbaa !77
  br label %10, !llvm.loop !118

62:                                               ; preds = %51, %16
  call void @llvm.lifetime.end.p0(i64 4, ptr %8) #5
  %63 = load i32, ptr %9, align 4
  switch i32 %63, label %67 [
    i32 2, label %64
    i32 1, label %65
  ]

64:                                               ; preds = %62
  store ptr null, ptr %4, align 8
  br label %65

65:                                               ; preds = %64, %62
  %66 = load ptr, ptr %4, align 8
  ret ptr %66

67:                                               ; preds = %62
  unreachable
}