; Function Attrs: mustprogress nofree norecurse nosync nounwind willreturn memory(read, inaccessiblemem: none) uwtable
define hidden noundef ptr @_Z14luaF_findlocalPK5Protoii(ptr noundef readonly captures(none) %0, i32 noundef %1, i32 noundef %2) local_unnamed_addr #3 {
  %4 = getelementptr inbounds nuw i8, ptr %0, i64 144
  %5 = load i32, ptr %4, align 8, !tbaa !76
  %.not1819 = icmp sgt i32 %5, 0
  br i1 %.not1819, label %.lr.ph, label %._crit_edge

.lr.ph:                                           ; preds = %3
  %6 = getelementptr inbounds nuw i8, ptr %0, i64 72
  %7 = load ptr, ptr %6, align 8, !tbaa !75
  %wide.trip.count = zext nneg i32 %5 to i64
  br label %8

8:                                                ; preds = %.lr.ph, %21
  %indvars.iv = phi i64 [ 0, %.lr.ph ], [ %indvars.iv.next, %21 ]
  %9 = getelementptr inbounds nuw %struct.LocVar, ptr %7, i64 %indvars.iv
  %10 = getelementptr inbounds nuw i8, ptr %9, i64 16
  %11 = load i8, ptr %10, align 8, !tbaa !88
  %12 = zext i8 %11 to i32
  %13 = icmp eq i32 %1, %12
  br i1 %13, label %14, label %21

14:                                               ; preds = %8
  %15 = getelementptr inbounds nuw i8, ptr %9, i64 8
  %16 = load i32, ptr %15, align 8, !tbaa !84
  %.not = icmp slt i32 %2, %16
  br i1 %.not, label %21, label %17

17:                                               ; preds = %14
  %18 = getelementptr inbounds nuw i8, ptr %9, i64 12
  %19 = load i32, ptr %18, align 4, !tbaa !86
  %20 = icmp slt i32 %2, %19
  br i1 %20, label %._crit_edge, label %21

21:                                               ; preds = %8, %14, %17
  %indvars.iv.next = add nuw nsw i64 %indvars.iv, 1
  %exitcond.not = icmp eq i64 %indvars.iv.next, %wide.trip.count
  br i1 %exitcond.not, label %._crit_edge, label %8, !llvm.loop !89

._crit_edge:                                      ; preds = %21, %17, %3
  %spec.select = phi ptr [ null, %3 ], [ %9, %17 ], [ null, %21 ]
  ret ptr %spec.select
}